target datalayout = "e-m:e-p270:32:32-p271:32:32-p272:64:64-i64:64-i128:128-f80:128-n8:16:32:64-S128"
target triple = "x86_64-pc-linux-gnu"

%struct.QueryDesc = type { i32, ptr, ptr, ptr, ptr, ptr, ptr, ptr, i32, ptr, ptr, ptr, i8, ptr }
%struct.PortalData = type { ptr, ptr, ptr, ptr, ptr, i32, i32, i32, ptr, i32, %struct.QueryCompletion, ptr, ptr, ptr, ptr, i32, i32, i32, i8, i8, ptr, ptr, ptr, ptr, ptr, ptr, ptr, i8, i8, i64, i64, i8 }
%struct.QueryCompletion = type { i32, i64 }
%struct.EState = type { i32, i32, ptr, ptr, ptr, i32, ptr, ptr, ptr, ptr, ptr, ptr, ptr, ptr, ptr, ptr, i32, ptr, ptr, ptr, ptr, ptr, ptr, ptr, ptr, ptr, ptr, i64, i64, i32, i32, i8, ptr, ptr, ptr, ptr, ptr, i8, i32, i32, ptr, i32, ptr, ptr, ptr, ptr }

@.str.1 = private unnamed_addr constant [9 x i8] c"pquery.c\00", align 1
@.str.8 = private unnamed_addr constant [29 x i8] c"cursor can only scan forward\00", align 1
@.str.9 = private unnamed_addr constant [55 x i8] c"Declare it with SCROLL option to enable backward scan.\00", align 1
@__func__.PortalRunSelect = private unnamed_addr constant [16 x i8] c"PortalRunSelect\00", align 1

; Function Attrs: nounwind uwtable
define internal i64 @PortalRunSelect(ptr noundef %0, i1 noundef zeroext %1, i64 noundef %2, ptr noundef %3) #0 {
  %5 = alloca ptr, align 8
  %6 = alloca i8, align 1
  %7 = alloca i64, align 8
  %8 = alloca ptr, align 8
  %9 = alloca ptr, align 8
  %10 = alloca i32, align 4
  %11 = alloca i64, align 8
  store ptr %0, ptr %5, align 8
  %12 = zext i1 %1 to i8
  store i8 %12, ptr %6, align 1
  store i64 %2, ptr %7, align 8
  store ptr %3, ptr %8, align 8
  call void @llvm.lifetime.start.p0(i64 8, ptr %9) #10
  call void @llvm.lifetime.start.p0(i64 4, ptr %10) #10
  call void @llvm.lifetime.start.p0(i64 8, ptr %11) #10
  %13 = load ptr, ptr %5, align 8
  %14 = getelementptr inbounds nuw %struct.PortalData, ptr %13, i32 0, i32 20
  %15 = load ptr, ptr %14, align 8
  store ptr %15, ptr %9, align 8
  %16 = load ptr, ptr %9, align 8
  %17 = icmp ne ptr %16, null
  br i1 %17, label %18, label %22

18:                                               ; preds = %4
  %19 = load ptr, ptr %8, align 8
  %20 = load ptr, ptr %9, align 8
  %21 = getelementptr inbounds nuw %struct.QueryDesc, ptr %20, i32 0, i32 5
  store ptr %19, ptr %21, align 8
  br label %22

22:                                               ; preds = %18, %4
  %23 = load i8, ptr %6, align 1, !range !4, !noundef !5
  %24 = trunc i8 %23 to i1
  br i1 %24, label %25, label %88

25:                                               ; preds = %22
  %26 = load ptr, ptr %5, align 8
  %27 = getelementptr inbounds nuw %struct.PortalData, ptr %26, i32 0, i32 28
  %28 = load i8, ptr %27, align 1, !range !4, !noundef !5
  %29 = trunc i8 %28 to i1
  br i1 %29, label %33, label %30

30:                                               ; preds = %25
  %31 = load i64, ptr %7, align 8
  %32 = icmp sle i64 %31, 0
  br i1 %32, label %33, label %34

33:                                               ; preds = %30, %25
  store i32 0, ptr %10, align 4
  store i64 0, ptr %7, align 8
  br label %35

34:                                               ; preds = %30
  store i32 1, ptr %10, align 4
  br label %35

35:                                               ; preds = %34, %33
  %36 = load i64, ptr %7, align 8
  %37 = icmp eq i64 %36, 9223372036854775807
  br i1 %37, label %38, label %39

38:                                               ; preds = %35
  store i64 0, ptr %7, align 8
  br label %39

39:                                               ; preds = %38, %35
  %40 = load ptr, ptr %5, align 8
  %41 = getelementptr inbounds nuw %struct.PortalData, ptr %40, i32 0, i32 24
  %42 = load ptr, ptr %41, align 8
  %43 = icmp ne ptr %42, null
  br i1 %43, label %44, label %50

44:                                               ; preds = %39
  %45 = load ptr, ptr %5, align 8
  %46 = load i32, ptr %10, align 4
  %47 = load i64, ptr %7, align 8
  %48 = load ptr, ptr %8, align 8
  %49 = call i64 @RunFromStore(ptr noundef %45, i32 noundef %46, i64 noundef %47, ptr noundef %48)
  store i64 %49, ptr %11, align 8
  br label %62

50:                                               ; preds = %39
  %51 = load ptr, ptr %9, align 8
  %52 = getelementptr inbounds nuw %struct.QueryDesc, ptr %51, i32 0, i32 3
  %53 = load ptr, ptr %52, align 8
  call void @PushActiveSnapshot(ptr noundef %53)
  %54 = load ptr, ptr %9, align 8
  %55 = load i32, ptr %10, align 4
  %56 = load i64, ptr %7, align 8
  call void @ExecutorRun(ptr noundef %54, i32 noundef %55, i64 noundef %56)
  %57 = load ptr, ptr %9, align 8
  %58 = getelementptr inbounds nuw %struct.QueryDesc, ptr %57, i32 0, i32 10
  %59 = load ptr, ptr %58, align 8
  %60 = getelementptr inbounds nuw %struct.EState, ptr %59, i32 0, i32 27
  %61 = load i64, ptr %60, align 8
  store i64 %61, ptr %11, align 8
  call void @PopActiveSnapshot()
  br label %62

62:                                               ; preds = %50, %44
  %63 = load i32, ptr %10, align 4
  %64 = icmp eq i32 %63, 0
  br i1 %64, label %87, label %65

65:                                               ; preds = %62
  %66 = load i64, ptr %11, align 8
  %67 = icmp ugt i64 %66, 0
  br i1 %67, label %68, label %71

68:                                               ; preds = %65
  %69 = load ptr, ptr %5, align 8
  %70 = getelementptr inbounds nuw %struct.PortalData, ptr %69, i32 0, i32 27
  store i8 0, ptr %70, align 8
  br label %71

71:                                               ; preds = %68, %65
  %72 = load i64, ptr %7, align 8
  %73 = icmp eq i64 %72, 0
  br i1 %73, label %78, label %74

74:                                               ; preds = %71
  %75 = load i64, ptr %11, align 8
  %76 = load i64, ptr %7, align 8
  %77 = icmp ult i64 %75, %76
  br i1 %77, label %78, label %81

78:                                               ; preds = %74, %71
  %79 = load ptr, ptr %5, align 8
  %80 = getelementptr inbounds nuw %struct.PortalData, ptr %79, i32 0, i32 28
  store i8 1, ptr %80, align 1
  br label %81

81:                                               ; preds = %78, %74
  %82 = load i64, ptr %11, align 8
  %83 = load ptr, ptr %5, align 8
  %84 = getelementptr inbounds nuw %struct.PortalData, ptr %83, i32 0, i32 29
  %85 = load i64, ptr %84, align 8
  %86 = add i64 %85, %82
  store i64 %86, ptr %84, align 8
  br label %87

87:                                               ; preds = %81, %62
  br label %182

88:                                               ; preds = %22
  %89 = load ptr, ptr %5, align 8
  %90 = getelementptr inbounds nuw %struct.PortalData, ptr %89, i32 0, i32 16
  %91 = load i32, ptr %90, align 4
  %92 = and i32 %91, 4
  %93 = icmp ne i32 %92, 0
  br i1 %93, label %94, label %107

94:                                               ; preds = %88
  br label %95

95:                                               ; preds = %94
  br i1 true, label %96, label %98

96:                                               ; preds = %95
  %97 = call zeroext i1 @errstart_cold(i32 noundef 21, ptr noundef null) #11
  br i1 %97, label %100, label %104

98:                                               ; preds = %95
  %99 = call zeroext i1 @errstart(i32 noundef 21, ptr noundef null)
  br i1 %99, label %100, label %104

100:                                              ; preds = %98, %96
  %101 = call i32 @errcode(i32 noundef 325)
  %102 = call i32 (ptr, ...) @errmsg(ptr noundef @.str.8)
  %103 = call i32 (ptr, ...) @errhint(ptr noundef @.str.9)
  call void @errfinish(ptr noundef @.str.1, i32 noundef 940, ptr noundef @__func__.PortalRunSelect)
  br label %104

104:                                              ; preds = %100, %98, %96
  unreachable

105:                                              ; No predecessors!
  br label %106

106:                                              ; preds = %105
  br label %107

107:                                              ; preds = %106, %88
  %108 = load ptr, ptr %5, align 8
  %109 = getelementptr inbounds nuw %struct.PortalData, ptr %108, i32 0, i32 27
  %110 = load i8, ptr %109, align 8, !range !4, !noundef !5
  %111 = trunc i8 %110 to i1
  br i1 %111, label %115, label %112

112:                                              ; preds = %107
  %113 = load i64, ptr %7, align 8
  %114 = icmp sle i64 %113, 0
  br i1 %114, label %115, label %116

115:                                              ; preds = %112, %107
  store i32 0, ptr %10, align 4
  store i64 0, ptr %7, align 8
  br label %117

116:                                              ; preds = %112
  store i32 -1, ptr %10, align 4
  br label %117

117:                                              ; preds = %116, %115
  %118 = load i64, ptr %7, align 8
  %119 = icmp eq i64 %118, 9223372036854775807
  br i1 %119, label %120, label %121

120:                                              ; preds = %117
  store i64 0, ptr %7, align 8
  br label %121

121:                                              ; preds = %120, %117
  %122 = load ptr, ptr %5, align 8
  %123 = getelementptr inbounds nuw %struct.PortalData, ptr %122, i32 0, i32 24
  %124 = load ptr, ptr %123, align 8
  %125 = icmp ne ptr %124, null
  br i1 %125, label %126, label %132

126:                                              ; preds = %121
  %127 = load ptr, ptr %5, align 8
  %128 = load i32, ptr %10, align 4
  %129 = load i64, ptr %7, align 8
  %130 = load ptr, ptr %8, align 8
  %131 = call i64 @RunFromStore(ptr noundef %127, i32 noundef %128, i64 noundef %129, ptr noundef %130)
  store i64 %131, ptr %11, align 8
  br label %144

132:                                              ; preds = %121
  %133 = load ptr, ptr %9, align 8
  %134 = getelementptr inbounds nuw %struct.QueryDesc, ptr %133, i32 0, i32 3
  %135 = load ptr, ptr %134, align 8
  call void @PushActiveSnapshot(ptr noundef %135)
  %136 = load ptr, ptr %9, align 8
  %137 = load i32, ptr %10, align 4
  %138 = load i64, ptr %7, align 8
  call void @ExecutorRun(ptr noundef %136, i32 noundef %137, i64 noundef %138)
  %139 = load ptr, ptr %9, align 8
  %140 = getelementptr inbounds nuw %struct.QueryDesc, ptr %139, i32 0, i32 10
  %141 = load ptr, ptr %140, align 8
  %142 = getelementptr inbounds nuw %struct.EState, ptr %141, i32 0, i32 27
  %143 = load i64, ptr %142, align 8
  store i64 %143, ptr %11, align 8
  call void @PopActiveSnapshot()
  br label %144

144:                                              ; preds = %132, %126
  %145 = load i32, ptr %10, align 4
  %146 = icmp eq i32 %145, 0
  br i1 %146, label %181, label %147

147:                                              ; preds = %144
  %148 = load i64, ptr %11, align 8
  %149 = icmp ugt i64 %148, 0
  br i1 %149, label %150, label %162

150:                                              ; preds = %147
  %151 = load ptr, ptr %5, align 8
  %152 = getelementptr inbounds nuw %struct.PortalData, ptr %151, i32 0, i32 28
  %153 = load i8, ptr %152, align 1, !range !4, !noundef !5
  %154 = trunc i8 %153 to i1
  br i1 %154, label %155, label %162

155:                                              ; preds = %150
  %156 = load ptr, ptr %5, align 8
  %157 = getelementptr inbounds nuw %struct.PortalData, ptr %156, i32 0, i32 28
  store i8 0, ptr %157, align 1
  %158 = load ptr, ptr %5, align 8
  %159 = getelementptr inbounds nuw %struct.PortalData, ptr %158, i32 0, i32 29
  %160 = load i64, ptr %159, align 8
  %161 = add i64 %160, 1
  store i64 %161, ptr %159, align 8
  br label %162

162:                                              ; preds = %155, %150, %147
  %163 = load i64, ptr %7, align 8
  %164 = icmp eq i64 %163, 0
  br i1 %164, label %169, label %165

165:                                              ; preds = %162
  %166 = load i64, ptr %11, align 8
  %167 = load i64, ptr %7, align 8
  %168 = icmp ult i64 %166, %167
  br i1 %168, label %169, label %174

169:                                              ; preds = %165, %162
  %170 = load ptr, ptr %5, align 8
  %171 = getelementptr inbounds nuw %struct.PortalData, ptr %170, i32 0, i32 27
  store i8 1, ptr %171, align 8
  %172 = load ptr, ptr %5, align 8
  %173 = getelementptr inbounds nuw %struct.PortalData, ptr %172, i32 0, i32 29
  store i64 0, ptr %173, align 8
  br label %180

174:                                              ; preds = %165
  %175 = load i64, ptr %11, align 8
  %176 = load ptr, ptr %5, align 8
  %177 = getelementptr inbounds nuw %struct.PortalData, ptr %176, i32 0, i32 29
  %178 = load i64, ptr %177, align 8
  %179 = sub i64 %178, %175
  store i64 %179, ptr %177, align 8
  br label %180

180:                                              ; preds = %174, %169
  br label %181

181:                                              ; preds = %180, %144
  br label %182

182:                                              ; preds = %181, %87
  %183 = load i64, ptr %11, align 8
  call void @llvm.lifetime.end.p0(i64 8, ptr %11) #10
  call void @llvm.lifetime.end.p0(i64 4, ptr %10) #10
  call void @llvm.lifetime.end.p0(i64 8, ptr %9) #10
  ret i64 %183
}