; Function Attrs: nounwind uwtable
define internal fastcc noundef i64 @PortalRunSelect(ptr noundef captures(none) %0, i1 noundef zeroext %1, i64 noundef %2, ptr noundef %3) unnamed_addr #0 {
  %5 = getelementptr inbounds nuw i8, ptr %0, i64 136
  %6 = load ptr, ptr %5, align 8
  %.not = icmp eq ptr %6, null
  br i1 %.not, label %9, label %7

7:                                                ; preds = %4
  %8 = getelementptr inbounds nuw i8, ptr %6, i64 40
  store ptr %3, ptr %8, align 8
  br label %9

9:                                                ; preds = %7, %4
  br i1 %1, label %10, label %39

10:                                               ; preds = %9
  %11 = getelementptr inbounds nuw i8, ptr %0, i64 193
  %12 = load i8, ptr %11, align 1, !range !4, !noundef !5
  %13 = trunc nuw i8 %12 to i1
  %14 = icmp slt i64 %2, 1
  %or.cond = or i1 %14, %13
  %. = select i1 %or.cond, i64 0, i64 %2
  %not.or.cond = xor i1 %or.cond, true
  %.69 = zext i1 %not.or.cond to i32
  %15 = icmp eq i64 %., 9223372036854775807
  %spec.store.select = select i1 %15, i64 0, i64 %.
  %16 = getelementptr inbounds nuw i8, ptr %0, i64 168
  %17 = load ptr, ptr %16, align 8
  %.not67 = icmp eq ptr %17, null
  br i1 %.not67, label %20, label %18

18:                                               ; preds = %10
  %19 = tail call fastcc i64 @RunFromStore(ptr noundef nonnull %0, i32 noundef %.69, i64 noundef %spec.store.select, ptr noundef %3)
  br label %27

20:                                               ; preds = %10
  %21 = getelementptr inbounds nuw i8, ptr %6, i64 24
  %22 = load ptr, ptr %21, align 8
  tail call void @PushActiveSnapshot(ptr noundef %22) #11
  tail call void @ExecutorRun(ptr noundef %6, i32 noundef %.69, i64 noundef %spec.store.select) #11
  %23 = getelementptr inbounds nuw i8, ptr %6, i64 80
  %24 = load ptr, ptr %23, align 8
  %25 = getelementptr inbounds nuw i8, ptr %24, i64 208
  %26 = load i64, ptr %25, align 8
  tail call void @PopActiveSnapshot() #11
  br label %27

27:                                               ; preds = %20, %18
  %.0 = phi i64 [ %19, %18 ], [ %26, %20 ]
  %28 = freeze i64 %.0
  br i1 %or.cond, label %84, label %29

29:                                               ; preds = %27
  %.not68 = icmp eq i64 %28, 0
  br i1 %.not68, label %32, label %30

30:                                               ; preds = %29
  %31 = getelementptr inbounds nuw i8, ptr %0, i64 192
  store i8 0, ptr %31, align 8
  br label %32

32:                                               ; preds = %30, %29
  %33 = add nsw i64 %spec.store.select, -1
  %or.cond70.not = icmp ult i64 %33, %28
  br i1 %or.cond70.not, label %35, label %34

34:                                               ; preds = %32
  store i8 1, ptr %11, align 1
  br label %35

35:                                               ; preds = %32, %34
  %36 = getelementptr inbounds nuw i8, ptr %0, i64 200
  %37 = load i64, ptr %36, align 8
  %38 = add i64 %37, %28
  store i64 %38, ptr %36, align 8
  br label %84

39:                                               ; preds = %9
  %40 = getelementptr inbounds nuw i8, ptr %0, i64 124
  %41 = load i32, ptr %40, align 4
  %42 = and i32 %41, 4
  %.not64 = icmp eq i32 %42, 0
  br i1 %.not64, label %48, label %43

43:                                               ; preds = %39
  %44 = tail call zeroext i1 @errstart_cold(i32 noundef 21, ptr noundef null) #12
  tail call void @llvm.assume(i1 %44)
  %45 = tail call i32 @errcode(i32 noundef 325) #11
  %46 = tail call i32 (ptr, ...) @errmsg(ptr noundef nonnull @.str.8) #11
  %47 = tail call i32 (ptr, ...) @errhint(ptr noundef nonnull @.str.9) #11
  tail call void @errfinish(ptr noundef nonnull @.str.1, i32 noundef 940, ptr noundef nonnull @__func__.PortalRunSelect) #11
  unreachable

48:                                               ; preds = %39
  %49 = getelementptr inbounds nuw i8, ptr %0, i64 192
  %50 = load i8, ptr %49, align 8, !range !4, !noundef !5
  %51 = trunc nuw i8 %50 to i1
  %52 = icmp slt i64 %2, 1
  %or.cond3 = or i1 %52, %51
  %.71 = select i1 %or.cond3, i64 0, i64 %2
  %not.or.cond3 = xor i1 %or.cond3, true
  %.72 = sext i1 %not.or.cond3 to i32
  %53 = icmp eq i64 %.71, 9223372036854775807
  %spec.store.select4 = select i1 %53, i64 0, i64 %.71
  %54 = getelementptr inbounds nuw i8, ptr %0, i64 168
  %55 = load ptr, ptr %54, align 8
  %.not65 = icmp eq ptr %55, null
  br i1 %.not65, label %58, label %56

56:                                               ; preds = %48
  %57 = tail call fastcc i64 @RunFromStore(ptr noundef nonnull %0, i32 noundef %.72, i64 noundef %spec.store.select4, ptr noundef %3)
  br label %65

58:                                               ; preds = %48
  %59 = getelementptr inbounds nuw i8, ptr %6, i64 24
  %60 = load ptr, ptr %59, align 8
  tail call void @PushActiveSnapshot(ptr noundef %60) #11
  tail call void @ExecutorRun(ptr noundef %6, i32 noundef %.72, i64 noundef %spec.store.select4) #11
  %61 = getelementptr inbounds nuw i8, ptr %6, i64 80
  %62 = load ptr, ptr %61, align 8
  %63 = getelementptr inbounds nuw i8, ptr %62, i64 208
  %64 = load i64, ptr %63, align 8
  tail call void @PopActiveSnapshot() #11
  br label %65

65:                                               ; preds = %58, %56
  %.2 = phi i64 [ %57, %56 ], [ %64, %58 ]
  %66 = freeze i64 %.2
  br i1 %or.cond3, label %84, label %67

67:                                               ; preds = %65
  %.not66 = icmp eq i64 %66, 0
  br i1 %.not66, label %76, label %68

68:                                               ; preds = %67
  %69 = getelementptr inbounds nuw i8, ptr %0, i64 193
  %70 = load i8, ptr %69, align 1, !range !4, !noundef !5
  %71 = trunc nuw i8 %70 to i1
  br i1 %71, label %72, label %76

72:                                               ; preds = %68
  store i8 0, ptr %69, align 1
  %73 = getelementptr inbounds nuw i8, ptr %0, i64 200
  %74 = load i64, ptr %73, align 8
  %75 = add i64 %74, 1
  store i64 %75, ptr %73, align 8
  br label %76

76:                                               ; preds = %72, %68, %67
  %77 = add nsw i64 %spec.store.select4, -1
  %or.cond73.not = icmp ult i64 %77, %66
  br i1 %or.cond73.not, label %80, label %78

78:                                               ; preds = %76
  store i8 1, ptr %49, align 8
  %79 = getelementptr inbounds nuw i8, ptr %0, i64 200
  store i64 0, ptr %79, align 8
  br label %84

80:                                               ; preds = %76
  %81 = getelementptr inbounds nuw i8, ptr %0, i64 200
  %82 = load i64, ptr %81, align 8
  %83 = sub i64 %82, %66
  store i64 %83, ptr %81, align 8
  br label %84

84:                                               ; preds = %65, %80, %78, %27, %35
  %.1 = phi i64 [ %28, %27 ], [ %28, %35 ], [ %66, %65 ], [ %66, %78 ], [ %66, %80 ]
  ret i64 %.1
}